target datalayout = "e-m:e-p270:32:32-p271:32:32-p272:64:64-i64:64-i128:128-f80:128-n8:16:32:64-S128"
target triple = "x86_64-pc-linux-gnu"

%class.TransTableL = type { %class.TransTable, i32, i32, i32, i32, i32, i32, %"struct.TransTableL::pageStatsType", [8192 x %"struct.TransTableL::aggrType"], [12 x [4 x ptr]], [12 x [4 x ptr]], ptr, ptr, %"struct.TransTableL::harvestedType", i32, i32 }
%class.TransTable = type { ptr }
%"struct.TransTableL::pageStatsType" = type { i32, i32, i32, i32, i32 }
%"struct.TransTableL::aggrType" = type { [4 x i32], [4 x [4 x i32]] }
%"struct.TransTableL::harvestedType" = type { i32, [1000 x ptr] }
%"struct.TransTableL::distHashType" = type { i32, i32, [32 x %"struct.TransTableL::posSearchType"] }
%"struct.TransTableL::posSearchType" = type { ptr, i64 }

; Function Attrs: mustprogress nounwind uwtable
define void @_ZN11TransTableL6InitTTEv(ptr noundef nonnull align 8 dereferenceable(664216) %0) #5 align 2 {
  %2 = alloca ptr, align 8
  %3 = alloca i32, align 4
  %4 = alloca i32, align 4
  %5 = alloca i32, align 4
  store ptr %0, ptr %2, align 8
  %6 = load ptr, ptr %2, align 8
  store i32 0, ptr %3, align 4
  br label %7

7:                                                ; preds = %58, %1
  %8 = load i32, ptr %3, align 4
  %9 = icmp slt i32 %8, 12
  br i1 %9, label %10, label %61

10:                                               ; preds = %7
  store i32 0, ptr %4, align 4
  br label %11

11:                                               ; preds = %54, %10
  %12 = load i32, ptr %4, align 4
  %13 = icmp slt i32 %12, 4
  br i1 %13, label %14, label %57

14:                                               ; preds = %11
  store i32 0, ptr %5, align 4
  br label %15

15:                                               ; preds = %43, %14
  %16 = load i32, ptr %5, align 4
  %17 = icmp slt i32 %16, 256
  br i1 %17, label %18, label %46

18:                                               ; preds = %15
  %19 = getelementptr inbounds nuw %class.TransTableL, ptr %6, i32 0, i32 9
  %20 = load i32, ptr %3, align 4
  %21 = sext i32 %20 to i64
  %22 = getelementptr inbounds [12 x [4 x ptr]], ptr %19, i64 0, i64 %21
  %23 = load i32, ptr %4, align 4
  %24 = sext i32 %23 to i64
  %25 = getelementptr inbounds [4 x ptr], ptr %22, i64 0, i64 %24
  %26 = load ptr, ptr %25, align 8
  %27 = load i32, ptr %5, align 4
  %28 = sext i32 %27 to i64
  %29 = getelementptr inbounds %"struct.TransTableL::distHashType", ptr %26, i64 %28
  %30 = getelementptr inbounds nuw %"struct.TransTableL::distHashType", ptr %29, i32 0, i32 0
  store i32 0, ptr %30, align 8
  %31 = getelementptr inbounds nuw %class.TransTableL, ptr %6, i32 0, i32 9
  %32 = load i32, ptr %3, align 4
  %33 = sext i32 %32 to i64
  %34 = getelementptr inbounds [12 x [4 x ptr]], ptr %31, i64 0, i64 %33
  %35 = load i32, ptr %4, align 4
  %36 = sext i32 %35 to i64
  %37 = getelementptr inbounds [4 x ptr], ptr %34, i64 0, i64 %36
  %38 = load ptr, ptr %37, align 8
  %39 = load i32, ptr %5, align 4
  %40 = sext i32 %39 to i64
  %41 = getelementptr inbounds %"struct.TransTableL::distHashType", ptr %38, i64 %40
  %42 = getelementptr inbounds nuw %"struct.TransTableL::distHashType", ptr %41, i32 0, i32 1
  store i32 0, ptr %42, align 4
  br label %43

43:                                               ; preds = %18
  %44 = load i32, ptr %5, align 4
  %45 = add nsw i32 %44, 1
  store i32 %45, ptr %5, align 4
  br label %15, !llvm.loop !13

46:                                               ; preds = %15
  %47 = getelementptr inbounds nuw %class.TransTableL, ptr %6, i32 0, i32 10
  %48 = load i32, ptr %3, align 4
  %49 = sext i32 %48 to i64
  %50 = getelementptr inbounds [12 x [4 x ptr]], ptr %47, i64 0, i64 %49
  %51 = load i32, ptr %4, align 4
  %52 = sext i32 %51 to i64
  %53 = getelementptr inbounds [4 x ptr], ptr %50, i64 0, i64 %52
  store ptr null, ptr %53, align 8
  br label %54

54:                                               ; preds = %46
  %55 = load i32, ptr %4, align 4
  %56 = add nsw i32 %55, 1
  store i32 %56, ptr %4, align 4
  br label %11, !llvm.loop !14

57:                                               ; preds = %11
  br label %58

58:                                               ; preds = %57
  %59 = load i32, ptr %3, align 4
  %60 = add nsw i32 %59, 1
  store i32 %60, ptr %3, align 4
  br label %7, !llvm.loop !15

61:                                               ; preds = %7
  ret void
}