; Function Attrs: mustprogress nofree norecurse nosync nounwind memory(write, argmem: readwrite, inaccessiblemem: none) uwtable
define void @_ZN11TransTableL6InitTTEv(ptr nocapture noundef nonnull align 8 dereferenceable(664216) %0) local_unnamed_addr #15 align 2 {
  %2 = getelementptr inbounds nuw i8, ptr %0, i64 655416
  %3 = getelementptr inbounds nuw i8, ptr %0, i64 655800
  br label %.preheader16

.preheader16:                                     ; preds = %1, %12
  %indvars.iv25 = phi i64 [ 0, %1 ], [ %indvars.iv.next26, %12 ]
  br label %.preheader

.preheader:                                       ; preds = %.preheader16, %10
  %indvars.iv21 = phi i64 [ 0, %.preheader16 ], [ %indvars.iv.next22, %10 ]
  %4 = getelementptr inbounds [12 x [4 x ptr]], ptr %2, i64 0, i64 %indvars.iv25, i64 %indvars.iv21
  br label %5

5:                                                ; preds = %.preheader, %5
  %indvars.iv = phi i64 [ 0, %.preheader ], [ %indvars.iv.next, %5 ]
  %6 = load ptr, ptr %4, align 8
  %7 = getelementptr inbounds %"struct.TransTableL::distHashType", ptr %6, i64 %indvars.iv
  store i32 0, ptr %7, align 8
  %8 = load ptr, ptr %4, align 8
  %9 = getelementptr inbounds %"struct.TransTableL::distHashType", ptr %8, i64 %indvars.iv, i32 1
  store i32 0, ptr %9, align 4
  %indvars.iv.next = add nuw nsw i64 %indvars.iv, 1
  %exitcond.not = icmp eq i64 %indvars.iv.next, 256
  br i1 %exitcond.not, label %10, label %5, !llvm.loop !15

10:                                               ; preds = %5
  %11 = getelementptr inbounds [12 x [4 x ptr]], ptr %3, i64 0, i64 %indvars.iv25, i64 %indvars.iv21
  store ptr null, ptr %11, align 8
  %indvars.iv.next22 = add nuw nsw i64 %indvars.iv21, 1
  %exitcond24.not = icmp eq i64 %indvars.iv.next22, 4
  br i1 %exitcond24.not, label %12, label %.preheader, !llvm.loop !16

12:                                               ; preds = %10
  %indvars.iv.next26 = add nuw nsw i64 %indvars.iv25, 1
  %exitcond28.not = icmp eq i64 %indvars.iv.next26, 12
  br i1 %exitcond28.not, label %13, label %.preheader16, !llvm.loop !17

13:                                               ; preds = %12
  ret void
}